target datalayout = "e-m:e-p270:32:32-p271:32:32-p272:64:64-i64:64-i128:128-f80:128-n8:16:32:64-S128"
target triple = "x86_64-pc-linux-gnu"

; Function Attrs: nounwind uwtable
define zeroext i8 @l___private_Lean_Meta_Tactic_Grind_Core_0__Lean_Meta_Grind_isCongrRelevant(ptr noundef %0) #2 {
  %2 = alloca i8, align 1
  %3 = alloca ptr, align 8
  %4 = alloca i8, align 1
  %5 = alloca i8, align 1
  %6 = alloca i32, align 4
  %7 = alloca i8, align 1
  store ptr %0, ptr %3, align 8, !tbaa !8
  br label %8

8:                                                ; preds = %1
  call void @llvm.lifetime.start.p0(i64 1, ptr %4) #7
  %9 = load ptr, ptr %3, align 8, !tbaa !8
  %10 = call zeroext i8 @l_Lean_Expr_isApp(ptr noundef %9)
  store i8 %10, ptr %4, align 1, !tbaa !12
  %11 = load i8, ptr %4, align 1, !tbaa !12
  %12 = zext i8 %11 to i32
  %13 = icmp eq i32 %12, 0
  br i1 %13, label %14, label %18

14:                                               ; preds = %8
  call void @llvm.lifetime.start.p0(i64 1, ptr %5) #7
  %15 = load ptr, ptr %3, align 8, !tbaa !8
  %16 = call zeroext i8 @l_Lean_Expr_isArrow(ptr noundef %15)
  store i8 %16, ptr %5, align 1, !tbaa !12
  %17 = load i8, ptr %5, align 1, !tbaa !12
  store i8 %17, ptr %2, align 1
  store i32 1, ptr %6, align 4
  call void @llvm.lifetime.end.p0(i64 1, ptr %5) #7
  br label %20

18:                                               ; preds = %8
  call void @llvm.lifetime.start.p0(i64 1, ptr %7) #7
  store i8 1, ptr %7, align 1, !tbaa !12
  %19 = load i8, ptr %7, align 1, !tbaa !12
  store i8 %19, ptr %2, align 1
  store i32 1, ptr %6, align 4
  call void @llvm.lifetime.end.p0(i64 1, ptr %7) #7
  br label %20

20:                                               ; preds = %18, %14
  call void @llvm.lifetime.end.p0(i64 1, ptr %4) #7
  %21 = load i8, ptr %2, align 1
  ret i8 %21
}