; Function Attrs: nounwind uwtable
define zeroext i8 @l___private_Lean_Meta_Tactic_Grind_Core_0__Lean_Meta_Grind_isCongrRelevant(ptr noundef %0) local_unnamed_addr #1 {
  %2 = tail call zeroext i8 @l_Lean_Expr_isApp(ptr noundef %0) #5
  %3 = icmp eq i8 %2, 0
  br i1 %3, label %4, label %6

4:                                                ; preds = %1
  %5 = tail call zeroext i8 @l_Lean_Expr_isArrow(ptr noundef %0) #5
  br label %6

6:                                                ; preds = %1, %4
  %.0 = phi i8 [ %5, %4 ], [ 1, %1 ]
  ret i8 %.0
}